target datalayout = "e-m:e-p270:32:32-p271:32:32-p272:64:64-i64:64-i128:128-f80:128-n8:16:32:64-S128"
target triple = "x86_64-pc-linux-gnu"

%struct.ExprState = type { i32, i8, i8, i64, ptr, ptr, ptr, ptr, ptr, i32, i32, ptr, ptr, ptr, ptr, ptr, ptr, ptr }
%struct.ExprEvalStep = type { i64, ptr, ptr, %union.anon }
%union.anon = type { %struct.anon.23 }
%struct.anon.23 = type { ptr, ptr, i32, i32, ptr, ptr }
%struct.anon.30 = type { ptr, ptr, ptr, i32, ptr }
%struct.anon.0 = type { i32, i32, i32 }
%struct.ExprContext = type { i32, ptr, ptr, ptr, ptr, ptr, ptr, ptr, ptr, ptr, i64, i8, i64, i8, ptr, ptr, ptr, ptr }
%struct.anon = type { i32, i8, ptr, ptr }
%struct.TupleTableSlot = type { i32, i16, i16, ptr, ptr, ptr, ptr, ptr, %struct.ItemPointerData, i32 }
%struct.ItemPointerData = type { %struct.BlockIdData, i16 }
%struct.BlockIdData = type { i16, i16 }
%struct.FunctionCallInfoBaseData = type { ptr, ptr, ptr, i32, i8, i16, [0 x %struct.NullableDatum] }
%struct.NullableDatum = type { i64, i8 }
%struct.anon.29 = type { i64 }

; Function Attrs: inlinehint nounwind uwtable
define internal i64 @UInt32GetDatum(i32 noundef %0) #2 {
  %2 = alloca i32, align 4
  store i32 %0, ptr %2, align 4
  %3 = load i32, ptr %2, align 4
  %4 = zext i32 %3 to i64
  ret i64 %4
}

; Function Attrs: inlinehint nounwind uwtable
define internal i32 @pg_rotate_left32(i32 noundef %0, i32 noundef %1) #2 {
  %3 = alloca i32, align 4
  %4 = alloca i32, align 4
  store i32 %0, ptr %3, align 4
  store i32 %1, ptr %4, align 4
  %5 = load i32, ptr %3, align 4
  %6 = load i32, ptr %4, align 4
  %7 = shl i32 %5, %6
  %8 = load i32, ptr %3, align 4
  %9 = load i32, ptr %4, align 4
  %10 = sub i32 32, %9
  %11 = lshr i32 %8, %10
  %12 = or i32 %7, %11
  ret i32 %12
}

; Function Attrs: inlinehint nounwind uwtable
define internal i32 @DatumGetUInt32(i64 noundef %0) #2 {
  %2 = alloca i64, align 8
  store i64 %0, ptr %2, align 8
  %3 = load i64, ptr %2, align 8
  %4 = trunc i64 %3 to i32
  ret i32 %4
}

; Function Attrs: inlinehint nounwind uwtable
define internal void @slot_getsomeattrs(ptr noundef %0, i32 noundef %1) #2 {
  %3 = alloca ptr, align 8
  %4 = alloca i32, align 4
  store ptr %0, ptr %3, align 8
  store i32 %1, ptr %4, align 4
  %5 = load ptr, ptr %3, align 8
  %6 = getelementptr inbounds nuw %struct.TupleTableSlot, ptr %5, i32 0, i32 2
  %7 = load i16, ptr %6, align 2
  %8 = sext i16 %7 to i32
  %9 = load i32, ptr %4, align 4
  %10 = icmp slt i32 %8, %9
  br i1 %10, label %11, label %14

11:                                               ; preds = %2
  %12 = load ptr, ptr %3, align 8
  %13 = load i32, ptr %4, align 4
  call void @slot_getsomeattrs_int(ptr noundef %12, i32 noundef %13)
  br label %14

14:                                               ; preds = %11, %2
  ret void
}

; Function Attrs: nounwind uwtable
define internal void @CheckOpSlotCompatibility(ptr noundef %0, ptr noundef %1) #0 {
  %3 = alloca ptr, align 8
  %4 = alloca ptr, align 8
  store ptr %0, ptr %3, align 8
  store ptr %1, ptr %4, align 8
  ret void
}

; Function Attrs: nounwind uwtable
define internal i64 @ExecJustHashInnerVarWithIV(ptr noundef %0, ptr noundef %1, ptr noundef %2) #0 {
  %4 = alloca ptr, align 8
  %5 = alloca ptr, align 8
  %6 = alloca ptr, align 8
  %7 = alloca ptr, align 8
  %8 = alloca ptr, align 8
  %9 = alloca ptr, align 8
  %10 = alloca ptr, align 8
  %11 = alloca ptr, align 8
  %12 = alloca i32, align 4
  %13 = alloca i32, align 4
  %14 = alloca i32, align 4
  store ptr %0, ptr %4, align 8
  store ptr %1, ptr %5, align 8
  store ptr %2, ptr %6, align 8
  call void @llvm.lifetime.start.p0(i64 8, ptr %7) #11
  %15 = load ptr, ptr %4, align 8
  %16 = getelementptr inbounds nuw %struct.ExprState, ptr %15, i32 0, i32 5
  %17 = load ptr, ptr %16, align 8
  %18 = getelementptr inbounds %struct.ExprEvalStep, ptr %17, i64 0
  store ptr %18, ptr %7, align 8
  call void @llvm.lifetime.start.p0(i64 8, ptr %8) #11
  %19 = load ptr, ptr %4, align 8
  %20 = getelementptr inbounds nuw %struct.ExprState, ptr %19, i32 0, i32 5
  %21 = load ptr, ptr %20, align 8
  %22 = getelementptr inbounds %struct.ExprEvalStep, ptr %21, i64 1
  store ptr %22, ptr %8, align 8
  call void @llvm.lifetime.start.p0(i64 8, ptr %9) #11
  %23 = load ptr, ptr %4, align 8
  %24 = getelementptr inbounds nuw %struct.ExprState, ptr %23, i32 0, i32 5
  %25 = load ptr, ptr %24, align 8
  %26 = getelementptr inbounds %struct.ExprEvalStep, ptr %25, i64 2
  store ptr %26, ptr %9, align 8
  call void @llvm.lifetime.start.p0(i64 8, ptr %10) #11
  %27 = load ptr, ptr %4, align 8
  %28 = getelementptr inbounds nuw %struct.ExprState, ptr %27, i32 0, i32 5
  %29 = load ptr, ptr %28, align 8
  %30 = getelementptr inbounds %struct.ExprEvalStep, ptr %29, i64 3
  store ptr %30, ptr %10, align 8
  call void @llvm.lifetime.start.p0(i64 8, ptr %11) #11
  %31 = load ptr, ptr %10, align 8
  %32 = getelementptr inbounds nuw %struct.ExprEvalStep, ptr %31, i32 0, i32 3
  %33 = getelementptr inbounds nuw %struct.anon.30, ptr %32, i32 0, i32 1
  %34 = load ptr, ptr %33, align 8
  store ptr %34, ptr %11, align 8
  call void @llvm.lifetime.start.p0(i64 4, ptr %12) #11
  %35 = load ptr, ptr %9, align 8
  %36 = getelementptr inbounds nuw %struct.ExprEvalStep, ptr %35, i32 0, i32 3
  %37 = getelementptr inbounds nuw %struct.anon.0, ptr %36, i32 0, i32 0
  %38 = load i32, ptr %37, align 8
  store i32 %38, ptr %12, align 4
  call void @llvm.lifetime.start.p0(i64 4, ptr %13) #11
  %39 = load ptr, ptr %7, align 8
  %40 = load ptr, ptr %5, align 8
  %41 = getelementptr inbounds nuw %struct.ExprContext, ptr %40, i32 0, i32 2
  %42 = load ptr, ptr %41, align 8
  call void @CheckOpSlotCompatibility(ptr noundef %39, ptr noundef %42)
  %43 = load ptr, ptr %5, align 8
  %44 = getelementptr inbounds nuw %struct.ExprContext, ptr %43, i32 0, i32 2
  %45 = load ptr, ptr %44, align 8
  %46 = load ptr, ptr %7, align 8
  %47 = getelementptr inbounds nuw %struct.ExprEvalStep, ptr %46, i32 0, i32 3
  %48 = getelementptr inbounds nuw %struct.anon, ptr %47, i32 0, i32 0
  %49 = load i32, ptr %48, align 8
  call void @slot_getsomeattrs(ptr noundef %45, i32 noundef %49)
  %50 = load ptr, ptr %5, align 8
  %51 = getelementptr inbounds nuw %struct.ExprContext, ptr %50, i32 0, i32 2
  %52 = load ptr, ptr %51, align 8
  %53 = getelementptr inbounds nuw %struct.TupleTableSlot, ptr %52, i32 0, i32 5
  %54 = load ptr, ptr %53, align 8
  %55 = load i32, ptr %12, align 4
  %56 = sext i32 %55 to i64
  %57 = getelementptr inbounds i64, ptr %54, i64 %56
  %58 = load i64, ptr %57, align 8
  %59 = load ptr, ptr %11, align 8
  %60 = getelementptr inbounds nuw %struct.FunctionCallInfoBaseData, ptr %59, i32 0, i32 6
  %61 = getelementptr inbounds [0 x %struct.NullableDatum], ptr %60, i64 0, i64 0
  %62 = getelementptr inbounds nuw %struct.NullableDatum, ptr %61, i32 0, i32 0
  store i64 %58, ptr %62, align 8
  %63 = load ptr, ptr %5, align 8
  %64 = getelementptr inbounds nuw %struct.ExprContext, ptr %63, i32 0, i32 2
  %65 = load ptr, ptr %64, align 8
  %66 = getelementptr inbounds nuw %struct.TupleTableSlot, ptr %65, i32 0, i32 6
  %67 = load ptr, ptr %66, align 8
  %68 = load i32, ptr %12, align 4
  %69 = sext i32 %68 to i64
  %70 = getelementptr inbounds i8, ptr %67, i64 %69
  %71 = load i8, ptr %70, align 1, !range !7, !noundef !8
  %72 = trunc i8 %71 to i1
  %73 = load ptr, ptr %11, align 8
  %74 = getelementptr inbounds nuw %struct.FunctionCallInfoBaseData, ptr %73, i32 0, i32 6
  %75 = getelementptr inbounds [0 x %struct.NullableDatum], ptr %74, i64 0, i64 0
  %76 = getelementptr inbounds nuw %struct.NullableDatum, ptr %75, i32 0, i32 1
  %77 = zext i1 %72 to i8
  store i8 %77, ptr %76, align 8
  %78 = load ptr, ptr %8, align 8
  %79 = getelementptr inbounds nuw %struct.ExprEvalStep, ptr %78, i32 0, i32 3
  %80 = getelementptr inbounds nuw %struct.anon.29, ptr %79, i32 0, i32 0
  %81 = load i64, ptr %80, align 8
  %82 = call i32 @DatumGetUInt32(i64 noundef %81)
  store i32 %82, ptr %13, align 4
  %83 = load i32, ptr %13, align 4
  %84 = call i32 @pg_rotate_left32(i32 noundef %83, i32 noundef 1)
  store i32 %84, ptr %13, align 4
  %85 = load ptr, ptr %11, align 8
  %86 = getelementptr inbounds nuw %struct.FunctionCallInfoBaseData, ptr %85, i32 0, i32 6
  %87 = getelementptr inbounds [0 x %struct.NullableDatum], ptr %86, i64 0, i64 0
  %88 = getelementptr inbounds nuw %struct.NullableDatum, ptr %87, i32 0, i32 1
  %89 = load i8, ptr %88, align 8, !range !7, !noundef !8
  %90 = trunc i8 %89 to i1
  br i1 %90, label %102, label %91

91:                                               ; preds = %3
  call void @llvm.lifetime.start.p0(i64 4, ptr %14) #11
  %92 = load ptr, ptr %10, align 8
  %93 = getelementptr inbounds nuw %struct.ExprEvalStep, ptr %92, i32 0, i32 3
  %94 = getelementptr inbounds nuw %struct.anon.30, ptr %93, i32 0, i32 2
  %95 = load ptr, ptr %94, align 8
  %96 = load ptr, ptr %11, align 8
  %97 = call i64 %95(ptr noundef %96)
  %98 = call i32 @DatumGetUInt32(i64 noundef %97)
  store i32 %98, ptr %14, align 4
  %99 = load i32, ptr %13, align 4
  %100 = load i32, ptr %14, align 4
  %101 = xor i32 %99, %100
  store i32 %101, ptr %13, align 4
  call void @llvm.lifetime.end.p0(i64 4, ptr %14) #11
  br label %102

102:                                              ; preds = %91, %3
  %103 = load ptr, ptr %6, align 8
  store i8 0, ptr %103, align 1
  %104 = load i32, ptr %13, align 4
  %105 = call i64 @UInt32GetDatum(i32 noundef %104)
  call void @llvm.lifetime.end.p0(i64 4, ptr %13) #11
  call void @llvm.lifetime.end.p0(i64 4, ptr %12) #11
  call void @llvm.lifetime.end.p0(i64 8, ptr %11) #11
  call void @llvm.lifetime.end.p0(i64 8, ptr %10) #11
  call void @llvm.lifetime.end.p0(i64 8, ptr %9) #11
  call void @llvm.lifetime.end.p0(i64 8, ptr %8) #11
  call void @llvm.lifetime.end.p0(i64 8, ptr %7) #11
  ret i64 %105
}