; Function Attrs: nounwind uwtable
define internal range(i64 0, 4294967296) i64 @ExecJustHashInnerVarWithIV(ptr noundef readonly captures(none) %0, ptr noundef readonly captures(none) %1, ptr noundef writeonly captures(none) initializes((0, 1)) %2) #0 {
  %4 = getelementptr inbounds nuw i8, ptr %0, i64 24
  %5 = load ptr, ptr %4, align 8
  %6 = getelementptr inbounds nuw i8, ptr %5, i64 224
  %7 = load ptr, ptr %6, align 8
  %8 = getelementptr inbounds nuw i8, ptr %5, i64 152
  %9 = load i32, ptr %8, align 8
  %10 = getelementptr inbounds nuw i8, ptr %1, i64 16
  %11 = load ptr, ptr %10, align 8
  %12 = getelementptr inbounds nuw i8, ptr %5, i64 24
  %13 = load i32, ptr %12, align 8
  %14 = getelementptr inbounds nuw i8, ptr %11, i64 6
  %15 = load i16, ptr %14, align 2
  %16 = sext i16 %15 to i32
  %17 = icmp sgt i32 %13, %16
  br i1 %17, label %18, label %slot_getsomeattrs.exit

18:                                               ; preds = %3
  tail call void @slot_getsomeattrs_int(ptr noundef nonnull %11, i32 noundef %13) #18
  %.pre = load ptr, ptr %10, align 8
  br label %slot_getsomeattrs.exit

slot_getsomeattrs.exit:                           ; preds = %3, %18
  %19 = phi ptr [ %11, %3 ], [ %.pre, %18 ]
  %20 = getelementptr inbounds nuw i8, ptr %19, i64 24
  %21 = load ptr, ptr %20, align 8
  %22 = sext i32 %9 to i64
  %23 = getelementptr inbounds i64, ptr %21, i64 %22
  %24 = load i64, ptr %23, align 8
  %25 = getelementptr inbounds nuw i8, ptr %7, i64 32
  store i64 %24, ptr %25, align 8
  %26 = load ptr, ptr %10, align 8
  %27 = getelementptr inbounds nuw i8, ptr %26, i64 32
  %28 = load ptr, ptr %27, align 8
  %29 = getelementptr inbounds i8, ptr %28, i64 %22
  %30 = load i8, ptr %29, align 1, !range !8, !noundef !9
  %31 = getelementptr inbounds nuw i8, ptr %7, i64 40
  store i8 %30, ptr %31, align 8
  %32 = getelementptr inbounds nuw i8, ptr %5, i64 88
  %33 = load i64, ptr %32, align 8
  %34 = trunc i64 %33 to i32
  %35 = tail call noundef i32 @llvm.fshl.i32(i32 %34, i32 %34, i32 1)
  %36 = trunc nuw i8 %30 to i1
  br i1 %36, label %43, label %37

37:                                               ; preds = %slot_getsomeattrs.exit
  %38 = getelementptr inbounds nuw i8, ptr %5, i64 232
  %39 = load ptr, ptr %38, align 8
  %40 = tail call i64 %39(ptr noundef nonnull %7) #18
  %41 = trunc i64 %40 to i32
  %42 = xor i32 %35, %41
  br label %43

43:                                               ; preds = %37, %slot_getsomeattrs.exit
  %.0 = phi i32 [ %35, %slot_getsomeattrs.exit ], [ %42, %37 ]
  store i8 0, ptr %2, align 1
  %44 = zext i32 %.0 to i64
  ret i64 %44
}